; Function Attrs: mustprogress null_pointer_is_valid sspstrong uwtable
define void @_Z19init_endpoint_tableP11register_ctPKc(ptr noundef %0, ptr noundef %1) local_unnamed_addr #2 personality ptr @__gxx_personality_v0 {
  %3 = alloca %class.QString, align 8
  %4 = alloca %class.QString, align 8
  %5 = load ptr, ptr @mainApp, align 8
  call void @llvm.lifetime.start.p0(i64 24, ptr nonnull %4) #13
  call void @llvm.lifetime.start.p0(i64 24, ptr nonnull %3) #13
  call void @_ZN7QString8fromUtf8E14QByteArrayView(ptr dead_on_unwind nonnull writable sret(%class.QString) align 8 %3, i64 9, ptr nonnull @.str.7)
  %6 = load ptr, ptr %3, align 8
  store ptr %6, ptr %4, align 8
  %7 = getelementptr inbounds nuw i8, ptr %4, i64 8
  %8 = getelementptr inbounds nuw i8, ptr %3, i64 8
  %9 = load ptr, ptr %8, align 8
  store ptr %9, ptr %7, align 8
  %10 = getelementptr inbounds nuw i8, ptr %4, i64 16
  %11 = getelementptr inbounds nuw i8, ptr %3, i64 16
  %12 = load i64, ptr %11, align 8
  store i64 %12, ptr %10, align 8
  call void @llvm.lifetime.end.p0(i64 24, ptr nonnull %3) #13
  %13 = invoke i32 @get_conversation_proto_id(ptr noundef %0)
          to label %14 unwind label %22

14:                                               ; preds = %2
  %15 = sext i32 %13 to i64
  %16 = inttoptr i64 %15 to ptr
  invoke void @_ZN15MainApplication21emitStatCommandSignalERK7QStringPKcPv(ptr noundef align 8 dereferenceable_or_null(216) %5, ptr noundef nonnull align 8 dereferenceable(24) %4, ptr noundef %1, ptr noundef %16)
          to label %17 unwind label %22

17:                                               ; preds = %14
  %18 = load ptr, ptr %4, align 8
  %.not.i.i.i = icmp eq ptr %18, null
  br i1 %.not.i.i.i, label %_ZN7QStringD2Ev.exit, label %_ZN17QArrayDataPointerIDsE5derefEv.exit.i.i

_ZN17QArrayDataPointerIDsE5derefEv.exit.i.i:      ; preds = %17
  %19 = atomicrmw sub ptr %18, i32 1 seq_cst, align 4
  %.not.i.i = icmp eq i32 %19, 1
  br i1 %.not.i.i, label %20, label %_ZN7QStringD2Ev.exit

20:                                               ; preds = %_ZN17QArrayDataPointerIDsE5derefEv.exit.i.i
  %21 = load ptr, ptr %4, align 8
  call void @_ZN10QArrayData10deallocateEPS_xx(ptr noundef %21, i64 noundef 2, i64 noundef 8) #13
  br label %_ZN7QStringD2Ev.exit

_ZN7QStringD2Ev.exit:                             ; preds = %17, %_ZN17QArrayDataPointerIDsE5derefEv.exit.i.i, %20
  call void @llvm.lifetime.end.p0(i64 24, ptr nonnull %4) #13
  ret void

22:                                               ; preds = %14, %2
  %23 = landingpad { ptr, i32 }
          cleanup
  %24 = load ptr, ptr %4, align 8
  %.not.i.i.i3 = icmp eq ptr %24, null
  br i1 %.not.i.i.i3, label %_ZN7QStringD2Ev.exit6, label %_ZN17QArrayDataPointerIDsE5derefEv.exit.i.i4

_ZN17QArrayDataPointerIDsE5derefEv.exit.i.i4:     ; preds = %22
  %25 = atomicrmw sub ptr %24, i32 1 seq_cst, align 4
  %.not.i.i5 = icmp eq i32 %25, 1
  br i1 %.not.i.i5, label %26, label %_ZN7QStringD2Ev.exit6

26:                                               ; preds = %_ZN17QArrayDataPointerIDsE5derefEv.exit.i.i4
  %27 = load ptr, ptr %4, align 8
  call void @_ZN10QArrayData10deallocateEPS_xx(ptr noundef %27, i64 noundef 2, i64 noundef 8) #13
  br label %_ZN7QStringD2Ev.exit6

_ZN7QStringD2Ev.exit6:                            ; preds = %22, %_ZN17QArrayDataPointerIDsE5derefEv.exit.i.i4, %26
  call void @llvm.lifetime.end.p0(i64 24, ptr nonnull %4) #13
  resume { ptr, i32 } %23
}